target datalayout = "e-m:e-p270:32:32-p271:32:32-p272:64:64-i64:64-i128:128-f80:128-n8:16:32:64-S128"
target triple = "x86_64-pc-linux-gnu"

%struct.xppid_s = type { i32, ptr, ptr }
%struct.xpid_s = type { i32, i32, ptr, ptr }

@plugin_type = external constant [0 x i8], align 1
@.str.15 = private unnamed_addr constant [65 x i8] c"%s: %s: %ld %s is not a user command.  Skipped sending signal %d\00", align 1
@__func__._kill_proclist = private unnamed_addr constant [15 x i8] c"_kill_proclist\00", align 1
@.str.16 = private unnamed_addr constant [39 x i8] c"%s: %s: Sending signal %d to pid %d %s\00", align 1

; Function Attrs: nounwind uwtable
define internal void @_destroy_list(ptr noundef %0) #0 {
  %2 = alloca ptr, align 8
  %3 = alloca ptr, align 8
  store ptr %0, ptr %2, align 8
  call void @llvm.lifetime.start.p0(i64 8, ptr %3) #6
  br label %4

4:                                                ; preds = %7, %1
  %5 = load ptr, ptr %2, align 8
  %6 = icmp ne ptr %5, null
  br i1 %6, label %7, label %14

7:                                                ; preds = %4
  %8 = load ptr, ptr %2, align 8
  %9 = getelementptr inbounds nuw %struct.xpid_s, ptr %8, i32 0, i32 3
  %10 = load ptr, ptr %9, align 8
  store ptr %10, ptr %3, align 8
  %11 = load ptr, ptr %2, align 8
  %12 = getelementptr inbounds nuw %struct.xpid_s, ptr %11, i32 0, i32 2
  call void @slurm_xfree(ptr noundef %12)
  call void @slurm_xfree(ptr noundef %2)
  %13 = load ptr, ptr %3, align 8
  store ptr %13, ptr %2, align 8
  br label %4, !llvm.loop !17

14:                                               ; preds = %4
  call void @llvm.lifetime.end.p0(i64 8, ptr %3) #6
  ret void
}

; Function Attrs: nounwind uwtable
define internal void @_destroy_hashtbl(ptr noundef %0) #0 {
  %2 = alloca ptr, align 8
  %3 = alloca i32, align 4
  %4 = alloca ptr, align 8
  %5 = alloca ptr, align 8
  store ptr %0, ptr %2, align 8
  call void @llvm.lifetime.start.p0(i64 4, ptr %3) #6
  call void @llvm.lifetime.start.p0(i64 8, ptr %4) #6
  call void @llvm.lifetime.start.p0(i64 8, ptr %5) #6
  store i32 0, ptr %3, align 4
  br label %6

6:                                                ; preds = %27, %1
  %7 = load i32, ptr %3, align 4
  %8 = icmp slt i32 %7, 64
  br i1 %8, label %9, label %30

9:                                                ; preds = %6
  %10 = load ptr, ptr %2, align 8
  %11 = load i32, ptr %3, align 4
  %12 = sext i32 %11 to i64
  %13 = getelementptr inbounds ptr, ptr %10, i64 %12
  %14 = load ptr, ptr %13, align 8
  store ptr %14, ptr %4, align 8
  br label %15

15:                                               ; preds = %18, %9
  %16 = load ptr, ptr %4, align 8
  %17 = icmp ne ptr %16, null
  br i1 %17, label %18, label %26

18:                                               ; preds = %15
  %19 = load ptr, ptr %4, align 8
  %20 = getelementptr inbounds nuw %struct.xppid_s, ptr %19, i32 0, i32 1
  %21 = load ptr, ptr %20, align 8
  call void @_destroy_list(ptr noundef %21)
  %22 = load ptr, ptr %4, align 8
  %23 = getelementptr inbounds nuw %struct.xppid_s, ptr %22, i32 0, i32 2
  %24 = load ptr, ptr %23, align 8
  store ptr %24, ptr %5, align 8
  call void @slurm_xfree(ptr noundef %4)
  %25 = load ptr, ptr %5, align 8
  store ptr %25, ptr %4, align 8
  br label %15, !llvm.loop !15

26:                                               ; preds = %15
  br label %27

27:                                               ; preds = %26
  %28 = load i32, ptr %3, align 4
  %29 = add nsw i32 %28, 1
  store i32 %29, ptr %3, align 4
  br label %6, !llvm.loop !16

30:                                               ; preds = %6
  call void @slurm_xfree(ptr noundef %2)
  call void @llvm.lifetime.end.p0(i64 8, ptr %5) #6
  call void @llvm.lifetime.end.p0(i64 8, ptr %4) #6
  call void @llvm.lifetime.end.p0(i64 4, ptr %3) #6
  ret void
}

; Function Attrs: nounwind uwtable
define internal i32 @_kill_proclist(ptr noundef %0, i32 noundef %1) #0 {
  %3 = alloca ptr, align 8
  %4 = alloca i32, align 4
  %5 = alloca i32, align 4
  store ptr %0, ptr %3, align 8
  store i32 %1, ptr %4, align 4
  call void @llvm.lifetime.start.p0(i64 4, ptr %5) #6
  store i32 0, ptr %5, align 4
  br label %6

6:                                                ; preds = %67, %2
  %7 = load ptr, ptr %3, align 8
  %8 = icmp ne ptr %7, null
  br i1 %8, label %9, label %71

9:                                                ; preds = %6
  %10 = load ptr, ptr %3, align 8
  %11 = getelementptr inbounds nuw %struct.xpid_s, ptr %10, i32 0, i32 0
  %12 = load i32, ptr %11, align 8
  %13 = icmp sgt i32 %12, 1
  br i1 %13, label %14, label %67

14:                                               ; preds = %9
  %15 = load ptr, ptr %3, align 8
  %16 = getelementptr inbounds nuw %struct.xpid_s, ptr %15, i32 0, i32 1
  %17 = load i32, ptr %16, align 4
  %18 = icmp ne i32 %17, 0
  br i1 %18, label %38, label %19

19:                                               ; preds = %14
  br label %20

20:                                               ; preds = %19
  br label %21

21:                                               ; preds = %20
  %22 = call i32 @get_log_level()
  %23 = icmp sge i32 %22, 6
  br i1 %23, label %24, label %33

24:                                               ; preds = %21
  %25 = load ptr, ptr %3, align 8
  %26 = getelementptr inbounds nuw %struct.xpid_s, ptr %25, i32 0, i32 0
  %27 = load i32, ptr %26, align 8
  %28 = sext i32 %27 to i64
  %29 = load ptr, ptr %3, align 8
  %30 = getelementptr inbounds nuw %struct.xpid_s, ptr %29, i32 0, i32 2
  %31 = load ptr, ptr %30, align 8
  %32 = load i32, ptr %4, align 4
  call void (i32, ptr, ...) @log_var(i32 noundef 6, ptr noundef @.str.15, ptr noundef @plugin_type, ptr noundef @__func__._kill_proclist, i64 noundef %28, ptr noundef %31, i32 noundef %32)
  br label %33

33:                                               ; preds = %24, %21
  br label %34

34:                                               ; preds = %33
  br label %35

35:                                               ; preds = %34
  br label %36

36:                                               ; preds = %35
  br label %37

37:                                               ; preds = %36
  br label %66

38:                                               ; preds = %14
  br label %39

39:                                               ; preds = %38
  br label %40

40:                                               ; preds = %39
  %41 = call i32 @get_log_level()
  %42 = icmp sge i32 %41, 4
  br i1 %42, label %43, label %51

43:                                               ; preds = %40
  %44 = load i32, ptr %4, align 4
  %45 = load ptr, ptr %3, align 8
  %46 = getelementptr inbounds nuw %struct.xpid_s, ptr %45, i32 0, i32 0
  %47 = load i32, ptr %46, align 8
  %48 = load ptr, ptr %3, align 8
  %49 = getelementptr inbounds nuw %struct.xpid_s, ptr %48, i32 0, i32 2
  %50 = load ptr, ptr %49, align 8
  call void (i32, ptr, ...) @log_var(i32 noundef 4, ptr noundef @.str.16, ptr noundef @plugin_type, ptr noundef @__func__._kill_proclist, i32 noundef %44, i32 noundef %47, ptr noundef %50)
  br label %51

51:                                               ; preds = %43, %40
  br label %52

52:                                               ; preds = %51
  br label %53

53:                                               ; preds = %52
  br label %54

54:                                               ; preds = %53
  br label %55

55:                                               ; preds = %54
  %56 = load ptr, ptr %3, align 8
  %57 = getelementptr inbounds nuw %struct.xpid_s, ptr %56, i32 0, i32 0
  %58 = load i32, ptr %57, align 8
  %59 = load i32, ptr %4, align 4
  %60 = call i32 @kill(i32 noundef %58, i32 noundef %59) #6
  %61 = icmp ne i32 %60, 0
  br i1 %61, label %62, label %65

62:                                               ; preds = %55
  %63 = call ptr @__errno_location() #7
  %64 = load i32, ptr %63, align 4
  store i32 %64, ptr %5, align 4
  br label %65

65:                                               ; preds = %62, %55
  br label %66

66:                                               ; preds = %65, %37
  br label %67

67:                                               ; preds = %66, %9
  %68 = load ptr, ptr %3, align 8
  %69 = getelementptr inbounds nuw %struct.xpid_s, ptr %68, i32 0, i32 3
  %70 = load ptr, ptr %69, align 8
  store ptr %70, ptr %3, align 8
  br label %6, !llvm.loop !14

71:                                               ; preds = %6
  %72 = load i32, ptr %5, align 4
  call void @llvm.lifetime.end.p0(i64 4, ptr %5) #6
  ret i32 %72
}

; Function Attrs: nounwind uwtable
define dso_local i32 @kill_proc_tree(i32 noundef %0, i32 noundef %1) #0 {
  %3 = alloca i32, align 4
  %4 = alloca i32, align 4
  %5 = alloca i32, align 4
  %6 = alloca ptr, align 8
  %7 = alloca i32, align 4
  %8 = alloca ptr, align 8
  %9 = alloca i32, align 4
  store i32 %0, ptr %4, align 4
  store i32 %1, ptr %5, align 4
  call void @llvm.lifetime.start.p0(i64 8, ptr %6) #6
  call void @llvm.lifetime.start.p0(i64 4, ptr %7) #6
  store i32 -1, ptr %7, align 4
  call void @llvm.lifetime.start.p0(i64 8, ptr %8) #6
  %10 = call ptr @_build_hashtbl()
  store ptr %10, ptr %8, align 8
  %11 = icmp eq ptr %10, null
  br i1 %11, label %12, label %13

12:                                               ; preds = %2
  store i32 -1, ptr %3, align 4
  store i32 1, ptr %9, align 4
  br label %23

13:                                               ; preds = %2
  %14 = load i32, ptr %4, align 4
  %15 = load ptr, ptr %8, align 8
  %16 = call ptr @_get_list(i32 noundef %14, ptr noundef null, ptr noundef %15)
  store ptr %16, ptr %6, align 8
  %17 = load ptr, ptr %6, align 8
  %18 = load i32, ptr %5, align 4
  %19 = call i32 @_kill_proclist(ptr noundef %17, i32 noundef %18)
  store i32 %19, ptr %7, align 4
  %20 = load ptr, ptr %8, align 8
  call void @_destroy_hashtbl(ptr noundef %20)
  %21 = load ptr, ptr %6, align 8
  call void @_destroy_list(ptr noundef %21)
  %22 = load i32, ptr %7, align 4
  store i32 %22, ptr %3, align 4
  store i32 1, ptr %9, align 4
  br label %23

23:                                               ; preds = %13, %12
  call void @llvm.lifetime.end.p0(i64 8, ptr %8) #6
  call void @llvm.lifetime.end.p0(i64 4, ptr %7) #6
  call void @llvm.lifetime.end.p0(i64 8, ptr %6) #6
  %24 = load i32, ptr %3, align 4
  ret i32 %24
}