; Function Attrs: nounwind uwtable
define dso_local i32 @kill_proc_tree(i32 noundef %0, i32 noundef %1) local_unnamed_addr #0 {
  %3 = alloca ptr, align 8
  %4 = alloca ptr, align 8
  %5 = alloca ptr, align 8
  %6 = alloca ptr, align 8
  %7 = tail call fastcc ptr @_build_hashtbl()
  %8 = icmp eq ptr %7, null
  br i1 %8, label %54, label %9

9:                                                ; preds = %2
  %10 = tail call fastcc ptr @_get_list(i32 noundef %0, ptr noundef null, ptr noundef %7)
  %.not15.i = icmp eq ptr %10, null
  br i1 %.not15.i, label %_kill_proclist.exit, label %.lr.ph.i

.lr.ph.i:                                         ; preds = %9, %36
  %.017.i = phi i32 [ %.1.i, %36 ], [ 0, %9 ]
  %.01216.i = phi ptr [ %38, %36 ], [ %10, %9 ]
  %11 = load i32, ptr %.01216.i, align 8
  %12 = icmp sgt i32 %11, 1
  br i1 %12, label %13, label %36

13:                                               ; preds = %.lr.ph.i
  %14 = getelementptr inbounds nuw i8, ptr %.01216.i, i64 4
  %15 = load i32, ptr %14, align 4
  %.not13.i = icmp eq i32 %15, 0
  %16 = tail call i32 @get_log_level() #9
  br i1 %.not13.i, label %17, label %24

17:                                               ; preds = %13
  %18 = icmp sgt i32 %16, 5
  br i1 %18, label %19, label %36

19:                                               ; preds = %17
  %20 = load i32, ptr %.01216.i, align 8
  %21 = sext i32 %20 to i64
  %22 = getelementptr inbounds nuw i8, ptr %.01216.i, i64 8
  %23 = load ptr, ptr %22, align 8
  tail call void (i32, ptr, ...) @log_var(i32 noundef 6, ptr noundef nonnull @.str.15, ptr noundef nonnull @plugin_type, ptr noundef nonnull @__func__._kill_proclist, i64 noundef %21, ptr noundef %23, i32 noundef %1) #9
  br label %36

24:                                               ; preds = %13
  %25 = icmp sgt i32 %16, 3
  br i1 %25, label %26, label %30

26:                                               ; preds = %24
  %27 = load i32, ptr %.01216.i, align 8
  %28 = getelementptr inbounds nuw i8, ptr %.01216.i, i64 8
  %29 = load ptr, ptr %28, align 8
  tail call void (i32, ptr, ...) @log_var(i32 noundef 4, ptr noundef nonnull @.str.16, ptr noundef nonnull @plugin_type, ptr noundef nonnull @__func__._kill_proclist, i32 noundef %1, i32 noundef %27, ptr noundef %29) #9
  br label %30

30:                                               ; preds = %26, %24
  %31 = load i32, ptr %.01216.i, align 8
  %32 = tail call i32 @kill(i32 noundef %31, i32 noundef %1) #9
  %.not14.i = icmp eq i32 %32, 0
  br i1 %.not14.i, label %36, label %33

33:                                               ; preds = %30
  %34 = tail call ptr @__errno_location() #10
  %35 = load i32, ptr %34, align 4
  br label %36

36:                                               ; preds = %33, %30, %19, %17, %.lr.ph.i
  %.1.i = phi i32 [ %35, %33 ], [ %.017.i, %30 ], [ %.017.i, %19 ], [ %.017.i, %17 ], [ %.017.i, %.lr.ph.i ]
  %37 = getelementptr inbounds nuw i8, ptr %.01216.i, i64 16
  %38 = load ptr, ptr %37, align 8
  %.not.i = icmp eq ptr %38, null
  br i1 %.not.i, label %_kill_proclist.exit, label %.lr.ph.i, !llvm.loop !8

_kill_proclist.exit:                              ; preds = %36, %9
  %.0.lcssa.i = phi i32 [ 0, %9 ], [ %.1.i, %36 ]
  call void @llvm.lifetime.start.p0(i64 8, ptr nonnull %5)
  store ptr %7, ptr %5, align 8
  call void @llvm.lifetime.start.p0(i64 8, ptr nonnull %6) #9
  br label %39

39:                                               ; preds = %._crit_edge.i, %_kill_proclist.exit
  %indvars.iv.i = phi i64 [ 0, %_kill_proclist.exit ], [ %indvars.iv.next.i, %._crit_edge.i ]
  %40 = load ptr, ptr %5, align 8
  %41 = getelementptr inbounds nuw ptr, ptr %40, i64 %indvars.iv.i
  %42 = load ptr, ptr %41, align 8
  store ptr %42, ptr %6, align 8
  %.not4.i = icmp eq ptr %42, null
  br i1 %.not4.i, label %._crit_edge.i, label %.lr.ph.i8

.lr.ph.i8:                                        ; preds = %39, %_destroy_list.exit.i
  %storemerge5.i = phi ptr [ %50, %_destroy_list.exit.i ], [ %42, %39 ]
  %43 = getelementptr inbounds nuw i8, ptr %storemerge5.i, i64 8
  %44 = load ptr, ptr %43, align 8
  call void @llvm.lifetime.start.p0(i64 8, ptr nonnull %4)
  store ptr %44, ptr %4, align 8
  %.not1.i.i = icmp eq ptr %44, null
  br i1 %.not1.i.i, label %_destroy_list.exit.i, label %.lr.ph.i.i

.lr.ph.i.i:                                       ; preds = %.lr.ph.i8, %.lr.ph.i.i
  %storemerge2.i.i = phi ptr [ %46, %.lr.ph.i.i ], [ %44, %.lr.ph.i8 ]
  %45 = getelementptr inbounds nuw i8, ptr %storemerge2.i.i, i64 16
  %46 = load ptr, ptr %45, align 8
  %47 = getelementptr inbounds nuw i8, ptr %storemerge2.i.i, i64 8
  call void @slurm_xfree(ptr noundef nonnull %47) #9
  call void @slurm_xfree(ptr noundef nonnull %4) #9
  store ptr %46, ptr %4, align 8
  %.not.i.i = icmp eq ptr %46, null
  br i1 %.not.i.i, label %_destroy_list.exit.loopexit.i, label %.lr.ph.i.i, !llvm.loop !11

_destroy_list.exit.loopexit.i:                    ; preds = %.lr.ph.i.i
  %.pre.i = load ptr, ptr %6, align 8
  br label %_destroy_list.exit.i

_destroy_list.exit.i:                             ; preds = %_destroy_list.exit.loopexit.i, %.lr.ph.i8
  %48 = phi ptr [ %.pre.i, %_destroy_list.exit.loopexit.i ], [ %storemerge5.i, %.lr.ph.i8 ]
  call void @llvm.lifetime.end.p0(i64 8, ptr nonnull %4)
  %49 = getelementptr inbounds nuw i8, ptr %48, i64 16
  %50 = load ptr, ptr %49, align 8
  call void @slurm_xfree(ptr noundef nonnull %6) #9
  store ptr %50, ptr %6, align 8
  %.not.i9 = icmp eq ptr %50, null
  br i1 %.not.i9, label %._crit_edge.i, label %.lr.ph.i8, !llvm.loop !12

._crit_edge.i:                                    ; preds = %_destroy_list.exit.i, %39
  %indvars.iv.next.i = add nuw nsw i64 %indvars.iv.i, 1
  %exitcond.not.i = icmp eq i64 %indvars.iv.next.i, 64
  br i1 %exitcond.not.i, label %_destroy_hashtbl.exit, label %39, !llvm.loop !13

_destroy_hashtbl.exit:                            ; preds = %._crit_edge.i
  call void @slurm_xfree(ptr noundef nonnull %5) #9
  call void @llvm.lifetime.end.p0(i64 8, ptr nonnull %6) #9
  call void @llvm.lifetime.end.p0(i64 8, ptr nonnull %5)
  call void @llvm.lifetime.start.p0(i64 8, ptr nonnull %3)
  store ptr %10, ptr %3, align 8
  br i1 %.not15.i, label %_destroy_list.exit, label %.lr.ph.i10

.lr.ph.i10:                                       ; preds = %_destroy_hashtbl.exit, %.lr.ph.i10
  %storemerge2.i = phi ptr [ %52, %.lr.ph.i10 ], [ %10, %_destroy_hashtbl.exit ]
  %51 = getelementptr inbounds nuw i8, ptr %storemerge2.i, i64 16
  %52 = load ptr, ptr %51, align 8
  %53 = getelementptr inbounds nuw i8, ptr %storemerge2.i, i64 8
  call void @slurm_xfree(ptr noundef nonnull %53) #9
  call void @slurm_xfree(ptr noundef nonnull %3) #9
  store ptr %52, ptr %3, align 8
  %.not.i11 = icmp eq ptr %52, null
  br i1 %.not.i11, label %_destroy_list.exit, label %.lr.ph.i10, !llvm.loop !11

_destroy_list.exit:                               ; preds = %.lr.ph.i10, %_destroy_hashtbl.exit
  call void @llvm.lifetime.end.p0(i64 8, ptr nonnull %3)
  br label %54

54:                                               ; preds = %2, %_destroy_list.exit
  %.0 = phi i32 [ %.0.lcssa.i, %_destroy_list.exit ], [ -1, %2 ]
  ret i32 %.0
}